target datalayout = "e-m:e-p270:32:32-p271:32:32-p272:64:64-i64:64-i128:128-f80:128-n8:16:32:64-S128"
target triple = "x86_64-pc-linux-gnu"

; Function Attrs: nounwind sspstrong uwtable
define internal i64 @fun_so_from_utf_32le(ptr noundef %0, ptr noundef %1, i64 noundef %2, ptr noundef %3, i64 noundef %4) #0 {
  %6 = alloca i64, align 8
  %7 = alloca ptr, align 8
  %8 = alloca ptr, align 8
  %9 = alloca i64, align 8
  %10 = alloca ptr, align 8
  %11 = alloca i64, align 8
  store ptr %0, ptr %7, align 8, !tbaa !6
  store ptr %1, ptr %8, align 8, !tbaa !10
  store i64 %2, ptr %9, align 8, !tbaa !12
  store ptr %3, ptr %10, align 8, !tbaa !10
  store i64 %4, ptr %11, align 8, !tbaa !12
  %12 = load ptr, ptr %8, align 8, !tbaa !10
  %13 = getelementptr inbounds i8, ptr %12, i64 2
  %14 = load i8, ptr %13, align 1, !tbaa !14
  %15 = icmp ne i8 %14, 0
  br i1 %15, label %100, label %16

16:                                               ; preds = %5
  %17 = load ptr, ptr %8, align 8, !tbaa !10
  %18 = getelementptr inbounds i8, ptr %17, i64 1
  %19 = load i8, ptr %18, align 1, !tbaa !14
  %20 = zext i8 %19 to i32
  %21 = icmp eq i32 %20, 0
  br i1 %21, label %22, label %34

22:                                               ; preds = %16
  %23 = load ptr, ptr %8, align 8, !tbaa !10
  %24 = getelementptr inbounds i8, ptr %23, i64 0
  %25 = load i8, ptr %24, align 1, !tbaa !14
  %26 = zext i8 %25 to i32
  %27 = icmp slt i32 %26, 128
  br i1 %27, label %28, label %34

28:                                               ; preds = %22
  %29 = load ptr, ptr %8, align 8, !tbaa !10
  %30 = getelementptr inbounds i8, ptr %29, i64 0
  %31 = load i8, ptr %30, align 1, !tbaa !14
  %32 = load ptr, ptr %10, align 8, !tbaa !10
  %33 = getelementptr inbounds i8, ptr %32, i64 0
  store i8 %31, ptr %33, align 1, !tbaa !14
  store i64 1, ptr %6, align 8
  br label %151

34:                                               ; preds = %22, %16
  %35 = load ptr, ptr %8, align 8, !tbaa !10
  %36 = getelementptr inbounds i8, ptr %35, i64 1
  %37 = load i8, ptr %36, align 1, !tbaa !14
  %38 = zext i8 %37 to i32
  %39 = icmp slt i32 %38, 8
  br i1 %39, label %40, label %65

40:                                               ; preds = %34
  %41 = load ptr, ptr %8, align 8, !tbaa !10
  %42 = getelementptr inbounds i8, ptr %41, i64 1
  %43 = load i8, ptr %42, align 1, !tbaa !14
  %44 = zext i8 %43 to i32
  %45 = shl i32 %44, 2
  %46 = or i32 192, %45
  %47 = load ptr, ptr %8, align 8, !tbaa !10
  %48 = getelementptr inbounds i8, ptr %47, i64 0
  %49 = load i8, ptr %48, align 1, !tbaa !14
  %50 = zext i8 %49 to i32
  %51 = ashr i32 %50, 6
  %52 = or i32 %46, %51
  %53 = trunc i32 %52 to i8
  %54 = load ptr, ptr %10, align 8, !tbaa !10
  %55 = getelementptr inbounds i8, ptr %54, i64 0
  store i8 %53, ptr %55, align 1, !tbaa !14
  %56 = load ptr, ptr %8, align 8, !tbaa !10
  %57 = getelementptr inbounds i8, ptr %56, i64 0
  %58 = load i8, ptr %57, align 1, !tbaa !14
  %59 = zext i8 %58 to i32
  %60 = and i32 %59, 63
  %61 = or i32 128, %60
  %62 = trunc i32 %61 to i8
  %63 = load ptr, ptr %10, align 8, !tbaa !10
  %64 = getelementptr inbounds i8, ptr %63, i64 1
  store i8 %62, ptr %64, align 1, !tbaa !14
  store i64 2, ptr %6, align 8
  br label %151

65:                                               ; preds = %34
  %66 = load ptr, ptr %8, align 8, !tbaa !10
  %67 = getelementptr inbounds i8, ptr %66, i64 1
  %68 = load i8, ptr %67, align 1, !tbaa !14
  %69 = zext i8 %68 to i32
  %70 = ashr i32 %69, 4
  %71 = or i32 224, %70
  %72 = trunc i32 %71 to i8
  %73 = load ptr, ptr %10, align 8, !tbaa !10
  %74 = getelementptr inbounds i8, ptr %73, i64 0
  store i8 %72, ptr %74, align 1, !tbaa !14
  %75 = load ptr, ptr %8, align 8, !tbaa !10
  %76 = getelementptr inbounds i8, ptr %75, i64 1
  %77 = load i8, ptr %76, align 1, !tbaa !14
  %78 = zext i8 %77 to i32
  %79 = and i32 %78, 15
  %80 = shl i32 %79, 2
  %81 = or i32 128, %80
  %82 = load ptr, ptr %8, align 8, !tbaa !10
  %83 = getelementptr inbounds i8, ptr %82, i64 0
  %84 = load i8, ptr %83, align 1, !tbaa !14
  %85 = zext i8 %84 to i32
  %86 = ashr i32 %85, 6
  %87 = or i32 %81, %86
  %88 = trunc i32 %87 to i8
  %89 = load ptr, ptr %10, align 8, !tbaa !10
  %90 = getelementptr inbounds i8, ptr %89, i64 1
  store i8 %88, ptr %90, align 1, !tbaa !14
  %91 = load ptr, ptr %8, align 8, !tbaa !10
  %92 = getelementptr inbounds i8, ptr %91, i64 0
  %93 = load i8, ptr %92, align 1, !tbaa !14
  %94 = zext i8 %93 to i32
  %95 = and i32 %94, 63
  %96 = or i32 128, %95
  %97 = trunc i32 %96 to i8
  %98 = load ptr, ptr %10, align 8, !tbaa !10
  %99 = getelementptr inbounds i8, ptr %98, i64 2
  store i8 %97, ptr %99, align 1, !tbaa !14
  store i64 3, ptr %6, align 8
  br label %151

100:                                              ; preds = %5
  %101 = load ptr, ptr %8, align 8, !tbaa !10
  %102 = getelementptr inbounds i8, ptr %101, i64 2
  %103 = load i8, ptr %102, align 1, !tbaa !14
  %104 = zext i8 %103 to i32
  %105 = ashr i32 %104, 2
  %106 = or i32 240, %105
  %107 = trunc i32 %106 to i8
  %108 = load ptr, ptr %10, align 8, !tbaa !10
  %109 = getelementptr inbounds i8, ptr %108, i64 0
  store i8 %107, ptr %109, align 1, !tbaa !14
  %110 = load ptr, ptr %8, align 8, !tbaa !10
  %111 = getelementptr inbounds i8, ptr %110, i64 2
  %112 = load i8, ptr %111, align 1, !tbaa !14
  %113 = zext i8 %112 to i32
  %114 = and i32 %113, 3
  %115 = shl i32 %114, 4
  %116 = or i32 128, %115
  %117 = load ptr, ptr %8, align 8, !tbaa !10
  %118 = getelementptr inbounds i8, ptr %117, i64 1
  %119 = load i8, ptr %118, align 1, !tbaa !14
  %120 = zext i8 %119 to i32
  %121 = ashr i32 %120, 4
  %122 = or i32 %116, %121
  %123 = trunc i32 %122 to i8
  %124 = load ptr, ptr %10, align 8, !tbaa !10
  %125 = getelementptr inbounds i8, ptr %124, i64 1
  store i8 %123, ptr %125, align 1, !tbaa !14
  %126 = load ptr, ptr %8, align 8, !tbaa !10
  %127 = getelementptr inbounds i8, ptr %126, i64 1
  %128 = load i8, ptr %127, align 1, !tbaa !14
  %129 = zext i8 %128 to i32
  %130 = and i32 %129, 15
  %131 = shl i32 %130, 2
  %132 = or i32 128, %131
  %133 = load ptr, ptr %8, align 8, !tbaa !10
  %134 = getelementptr inbounds i8, ptr %133, i64 0
  %135 = load i8, ptr %134, align 1, !tbaa !14
  %136 = zext i8 %135 to i32
  %137 = ashr i32 %136, 6
  %138 = or i32 %132, %137
  %139 = trunc i32 %138 to i8
  %140 = load ptr, ptr %10, align 8, !tbaa !10
  %141 = getelementptr inbounds i8, ptr %140, i64 2
  store i8 %139, ptr %141, align 1, !tbaa !14
  %142 = load ptr, ptr %8, align 8, !tbaa !10
  %143 = getelementptr inbounds i8, ptr %142, i64 0
  %144 = load i8, ptr %143, align 1, !tbaa !14
  %145 = zext i8 %144 to i32
  %146 = and i32 %145, 63
  %147 = or i32 128, %146
  %148 = trunc i32 %147 to i8
  %149 = load ptr, ptr %10, align 8, !tbaa !10
  %150 = getelementptr inbounds i8, ptr %149, i64 3
  store i8 %148, ptr %150, align 1, !tbaa !14
  store i64 4, ptr %6, align 8
  br label %151

151:                                              ; preds = %100, %65, %40, %28
  %152 = load i64, ptr %6, align 8
  ret i64 %152
}