; Function Attrs: mustprogress nofree norecurse nosync nounwind sspstrong willreturn memory(argmem: readwrite) uwtable
define internal range(i64 1, 5) i64 @fun_so_from_utf_32le(ptr readnone captures(none) %0, ptr noundef readonly captures(none) %1, i64 %2, ptr noundef writeonly captures(none) initializes((0, 1)) %3, i64 %4) #2 {
  %6 = getelementptr inbounds nuw i8, ptr %1, i64 2
  %7 = load i8, ptr %6, align 1, !tbaa !6
  %.not = icmp eq i8 %7, 0
  br i1 %.not, label %8, label %40

8:                                                ; preds = %5
  %9 = getelementptr inbounds nuw i8, ptr %1, i64 1
  %10 = load i8, ptr %9, align 1, !tbaa !6
  %11 = icmp eq i8 %10, 0
  br i1 %11, label %12, label %16

12:                                               ; preds = %8
  %13 = load i8, ptr %1, align 1, !tbaa !6
  %14 = icmp sgt i8 %13, -1
  br i1 %14, label %15, label %.thread

15:                                               ; preds = %12
  store i8 %13, ptr %3, align 1, !tbaa !6
  br label %64

16:                                               ; preds = %8
  %17 = icmp ult i8 %10, 8
  br i1 %17, label %..thread_crit_edge, label %25

..thread_crit_edge:                               ; preds = %16
  %.pre = load i8, ptr %1, align 1, !tbaa !6
  br label %.thread

.thread:                                          ; preds = %..thread_crit_edge, %12
  %18 = phi i8 [ %.pre, %..thread_crit_edge ], [ %13, %12 ]
  %19 = tail call i8 @llvm.fshl.i8(i8 %10, i8 %18, i8 2)
  %20 = or disjoint i8 %19, -64
  store i8 %20, ptr %3, align 1, !tbaa !6
  %21 = load i8, ptr %1, align 1, !tbaa !6
  %22 = and i8 %21, 63
  %23 = or disjoint i8 %22, -128
  %24 = getelementptr inbounds nuw i8, ptr %3, i64 1
  store i8 %23, ptr %24, align 1, !tbaa !6
  br label %64

25:                                               ; preds = %16
  %26 = lshr i8 %10, 4
  %27 = or disjoint i8 %26, -32
  store i8 %27, ptr %3, align 1, !tbaa !6
  %28 = load i8, ptr %9, align 1, !tbaa !6
  %29 = shl i8 %28, 2
  %30 = and i8 %29, 60
  %31 = load i8, ptr %1, align 1, !tbaa !6
  %32 = lshr i8 %31, 6
  %33 = or disjoint i8 %32, %30
  %34 = or disjoint i8 %33, -128
  %35 = getelementptr inbounds nuw i8, ptr %3, i64 1
  store i8 %34, ptr %35, align 1, !tbaa !6
  %36 = load i8, ptr %1, align 1, !tbaa !6
  %37 = and i8 %36, 63
  %38 = or disjoint i8 %37, -128
  %39 = getelementptr inbounds nuw i8, ptr %3, i64 2
  store i8 %38, ptr %39, align 1, !tbaa !6
  br label %64

40:                                               ; preds = %5
  %41 = lshr i8 %7, 2
  %42 = or i8 %41, -16
  store i8 %42, ptr %3, align 1, !tbaa !6
  %43 = load i8, ptr %6, align 1, !tbaa !6
  %44 = shl i8 %43, 4
  %45 = and i8 %44, 48
  %46 = getelementptr inbounds nuw i8, ptr %1, i64 1
  %47 = load i8, ptr %46, align 1, !tbaa !6
  %48 = lshr i8 %47, 4
  %49 = or disjoint i8 %48, %45
  %50 = or disjoint i8 %49, -128
  %51 = getelementptr inbounds nuw i8, ptr %3, i64 1
  store i8 %50, ptr %51, align 1, !tbaa !6
  %52 = load i8, ptr %46, align 1, !tbaa !6
  %53 = shl i8 %52, 2
  %54 = and i8 %53, 60
  %55 = load i8, ptr %1, align 1, !tbaa !6
  %56 = lshr i8 %55, 6
  %57 = or disjoint i8 %56, %54
  %58 = or disjoint i8 %57, -128
  %59 = getelementptr inbounds nuw i8, ptr %3, i64 2
  store i8 %58, ptr %59, align 1, !tbaa !6
  %60 = load i8, ptr %1, align 1, !tbaa !6
  %61 = and i8 %60, 63
  %62 = or disjoint i8 %61, -128
  %63 = getelementptr inbounds nuw i8, ptr %3, i64 3
  store i8 %62, ptr %63, align 1, !tbaa !6
  br label %64

64:                                               ; preds = %40, %25, %.thread, %15
  %.0 = phi i64 [ 4, %40 ], [ 1, %15 ], [ 2, %.thread ], [ 3, %25 ]
  ret i64 %.0
}